; Function Attrs: mustprogress nounwind uwtable
define internal void @_ZN12_GLOBAL__N_115RISCVPassConfig11addIRPassesEv(ptr noundef nonnull align 8 dereferenceable(134) %0) unnamed_addr #0 align 2 {
  %2 = tail call noundef ptr @_ZN4llvm28createAtomicExpandLegacyPassEv() #24
  tail call void @_ZN4llvm16TargetPassConfig7addPassEPNS_4PassE(ptr noundef nonnull align 8 dereferenceable(134) %0, ptr noundef %2) #24
  %3 = tail call noundef i32 @_ZNK4llvm16TargetPassConfig11getOptLevelEv(ptr noundef nonnull align 8 dereferenceable(134) %0) #24
  %.not = icmp eq i32 %3, 0
  br i1 %.not, label %13, label %4

4:                                                ; preds = %1
  %5 = load i8, ptr getelementptr inbounds (i8, ptr @_ZL22EnableLoopDataPrefetch, i64 128), align 8
  %6 = trunc i8 %5 to i1
  br i1 %6, label %7, label %9

7:                                                ; preds = %4
  %8 = tail call noundef ptr @_ZN4llvm26createLoopDataPrefetchPassEv() #24
  tail call void @_ZN4llvm16TargetPassConfig7addPassEPNS_4PassE(ptr noundef nonnull align 8 dereferenceable(134) %0, ptr noundef %8) #24
  br label %9

9:                                                ; preds = %7, %4
  %10 = tail call noundef ptr @_ZN4llvm36createRISCVGatherScatterLoweringPassEv() #24
  tail call void @_ZN4llvm16TargetPassConfig7addPassEPNS_4PassE(ptr noundef nonnull align 8 dereferenceable(134) %0, ptr noundef %10) #24
  %11 = tail call noundef ptr @_ZN4llvm27createInterleavedAccessPassEv() #24
  tail call void @_ZN4llvm16TargetPassConfig7addPassEPNS_4PassE(ptr noundef nonnull align 8 dereferenceable(134) %0, ptr noundef %11) #24
  %12 = tail call noundef ptr @_ZN4llvm29createRISCVCodeGenPreparePassEv() #24
  tail call void @_ZN4llvm16TargetPassConfig7addPassEPNS_4PassE(ptr noundef nonnull align 8 dereferenceable(134) %0, ptr noundef %12) #24
  br label %13

13:                                               ; preds = %9, %1
  tail call void @_ZN4llvm16TargetPassConfig11addIRPassesEv(ptr noundef nonnull align 8 dereferenceable(134) %0) #24
  ret void
}